target datalayout = "e-m:e-p270:32:32-p271:32:32-p272:64:64-i64:64-i128:128-f80:128-n8:16:32:64-S128"
target triple = "x86_64-pc-linux-gnu"

%struct.List = type { i32, i32, i32, ptr, [0 x %union.ListCell] }
%union.ListCell = type { ptr }
%struct.ForBothState = type { ptr, ptr, i32 }

; Function Attrs: nounwind uwtable
define dso_local i32 @set_config_option(ptr noundef %0, ptr noundef %1, i32 noundef %2, i32 noundef %3, i32 noundef %4, i1 noundef zeroext %5, i32 noundef %6, i1 noundef zeroext %7) #0 {
  %9 = alloca ptr, align 8
  %10 = alloca ptr, align 8
  %11 = alloca i32, align 4
  %12 = alloca i32, align 4
  %13 = alloca i32, align 4
  %14 = alloca i8, align 1
  %15 = alloca i32, align 4
  %16 = alloca i8, align 1
  %17 = alloca i32, align 4
  store ptr %0, ptr %9, align 8
  store ptr %1, ptr %10, align 8
  store i32 %2, ptr %11, align 4
  store i32 %3, ptr %12, align 4
  store i32 %4, ptr %13, align 4
  %18 = zext i1 %5 to i8
  store i8 %18, ptr %14, align 1
  store i32 %6, ptr %15, align 4
  %19 = zext i1 %7 to i8
  store i8 %19, ptr %16, align 1
  call void @llvm.lifetime.start.p0(i64 4, ptr %17) #16
  %20 = load i32, ptr %12, align 4
  %21 = icmp uge i32 %20, 11
  br i1 %21, label %25, label %22

22:                                               ; preds = %8
  %23 = load i32, ptr %12, align 4
  %24 = icmp eq i32 %23, 9
  br i1 %24, label %25, label %27

25:                                               ; preds = %22, %8
  %26 = call i32 @GetUserId()
  store i32 %26, ptr %17, align 4
  br label %28

27:                                               ; preds = %22
  store i32 10, ptr %17, align 4
  br label %28

28:                                               ; preds = %27, %25
  %29 = load ptr, ptr %9, align 8
  %30 = load ptr, ptr %10, align 8
  %31 = load i32, ptr %11, align 4
  %32 = load i32, ptr %12, align 4
  %33 = load i32, ptr %17, align 4
  %34 = load i32, ptr %13, align 4
  %35 = load i8, ptr %14, align 1, !range !4, !noundef !5
  %36 = trunc i8 %35 to i1
  %37 = load i32, ptr %15, align 4
  %38 = load i8, ptr %16, align 1, !range !4, !noundef !5
  %39 = trunc i8 %38 to i1
  %40 = call i32 @set_config_with_handle(ptr noundef %29, ptr noundef null, ptr noundef %30, i32 noundef %31, i32 noundef %32, i32 noundef %33, i32 noundef %34, i1 noundef zeroext %36, i32 noundef %37, i1 noundef zeroext %39)
  call void @llvm.lifetime.end.p0(i64 4, ptr %17) #16
  ret i32 %40
}

; Function Attrs: nounwind uwtable
define dso_local void @ProcessGUCArray(ptr noundef %0, i32 noundef %1, i32 noundef %2, i32 noundef %3) #0 {
  %5 = alloca ptr, align 8
  %6 = alloca i32, align 4
  %7 = alloca i32, align 4
  %8 = alloca i32, align 4
  %9 = alloca ptr, align 8
  %10 = alloca ptr, align 8
  %11 = alloca ptr, align 8
  %12 = alloca ptr, align 8
  %13 = alloca %struct.ForBothState, align 8
  %14 = alloca ptr, align 8
  %15 = alloca ptr, align 8
  store ptr %0, ptr %5, align 8
  store i32 %1, ptr %6, align 4
  store i32 %2, ptr %7, align 4
  store i32 %3, ptr %8, align 4
  call void @llvm.lifetime.start.p0(i64 8, ptr %9) #16
  call void @llvm.lifetime.start.p0(i64 8, ptr %10) #16
  call void @llvm.lifetime.start.p0(i64 8, ptr %11) #16
  call void @llvm.lifetime.start.p0(i64 8, ptr %12) #16
  %16 = load ptr, ptr %5, align 8
  call void @TransformGUCArray(ptr noundef %16, ptr noundef %9, ptr noundef %10)
  call void @llvm.lifetime.start.p0(i64 24, ptr %13) #16
  %17 = getelementptr inbounds nuw %struct.ForBothState, ptr %13, i32 0, i32 0
  %18 = load ptr, ptr %9, align 8
  store ptr %18, ptr %17, align 8
  %19 = getelementptr inbounds nuw %struct.ForBothState, ptr %13, i32 0, i32 1
  %20 = load ptr, ptr %10, align 8
  store ptr %20, ptr %19, align 8
  %21 = getelementptr inbounds nuw %struct.ForBothState, ptr %13, i32 0, i32 2
  store i32 0, ptr %21, align 8
  %22 = getelementptr i8, ptr %13, i64 20
  call void @llvm.memset.p0.i64(ptr align 4 %22, i8 0, i64 4, i1 false)
  br label %23

23:                                               ; preds = %91, %4
  %24 = getelementptr inbounds nuw %struct.ForBothState, ptr %13, i32 0, i32 0
  %25 = load ptr, ptr %24, align 8
  %26 = icmp ne ptr %25, null
  br i1 %26, label %27, label %44

27:                                               ; preds = %23
  %28 = getelementptr inbounds nuw %struct.ForBothState, ptr %13, i32 0, i32 2
  %29 = load i32, ptr %28, align 8
  %30 = getelementptr inbounds nuw %struct.ForBothState, ptr %13, i32 0, i32 0
  %31 = load ptr, ptr %30, align 8
  %32 = getelementptr inbounds nuw %struct.List, ptr %31, i32 0, i32 1
  %33 = load i32, ptr %32, align 4
  %34 = icmp slt i32 %29, %33
  br i1 %34, label %35, label %44

35:                                               ; preds = %27
  %36 = getelementptr inbounds nuw %struct.ForBothState, ptr %13, i32 0, i32 0
  %37 = load ptr, ptr %36, align 8
  %38 = getelementptr inbounds nuw %struct.List, ptr %37, i32 0, i32 3
  %39 = load ptr, ptr %38, align 8
  %40 = getelementptr inbounds nuw %struct.ForBothState, ptr %13, i32 0, i32 2
  %41 = load i32, ptr %40, align 8
  %42 = sext i32 %41 to i64
  %43 = getelementptr inbounds %union.ListCell, ptr %39, i64 %42
  br label %45

44:                                               ; preds = %27, %23
  br label %45

45:                                               ; preds = %44, %35
  %46 = phi ptr [ %43, %35 ], [ null, %44 ]
  store ptr %46, ptr %11, align 8
  %47 = getelementptr inbounds nuw %struct.ForBothState, ptr %13, i32 0, i32 1
  %48 = load ptr, ptr %47, align 8
  %49 = icmp ne ptr %48, null
  br i1 %49, label %50, label %67

50:                                               ; preds = %45
  %51 = getelementptr inbounds nuw %struct.ForBothState, ptr %13, i32 0, i32 2
  %52 = load i32, ptr %51, align 8
  %53 = getelementptr inbounds nuw %struct.ForBothState, ptr %13, i32 0, i32 1
  %54 = load ptr, ptr %53, align 8
  %55 = getelementptr inbounds nuw %struct.List, ptr %54, i32 0, i32 1
  %56 = load i32, ptr %55, align 4
  %57 = icmp slt i32 %52, %56
  br i1 %57, label %58, label %67

58:                                               ; preds = %50
  %59 = getelementptr inbounds nuw %struct.ForBothState, ptr %13, i32 0, i32 1
  %60 = load ptr, ptr %59, align 8
  %61 = getelementptr inbounds nuw %struct.List, ptr %60, i32 0, i32 3
  %62 = load ptr, ptr %61, align 8
  %63 = getelementptr inbounds nuw %struct.ForBothState, ptr %13, i32 0, i32 2
  %64 = load i32, ptr %63, align 8
  %65 = sext i32 %64 to i64
  %66 = getelementptr inbounds %union.ListCell, ptr %62, i64 %65
  br label %68

67:                                               ; preds = %50, %45
  br label %68

68:                                               ; preds = %67, %58
  %69 = phi ptr [ %66, %58 ], [ null, %67 ]
  store ptr %69, ptr %12, align 8
  %70 = load ptr, ptr %11, align 8
  %71 = icmp ne ptr %70, null
  br i1 %71, label %72, label %75

72:                                               ; preds = %68
  %73 = load ptr, ptr %12, align 8
  %74 = icmp ne ptr %73, null
  br label %75

75:                                               ; preds = %72, %68
  %76 = phi i1 [ false, %68 ], [ %74, %72 ]
  br i1 %76, label %78, label %77

77:                                               ; preds = %75
  call void @llvm.lifetime.end.p0(i64 24, ptr %13) #16
  br label %95

78:                                               ; preds = %75
  call void @llvm.lifetime.start.p0(i64 8, ptr %14) #16
  %79 = load ptr, ptr %11, align 8
  %80 = load ptr, ptr %79, align 8
  store ptr %80, ptr %14, align 8
  call void @llvm.lifetime.start.p0(i64 8, ptr %15) #16
  %81 = load ptr, ptr %12, align 8
  %82 = load ptr, ptr %81, align 8
  store ptr %82, ptr %15, align 8
  %83 = load ptr, ptr %14, align 8
  %84 = load ptr, ptr %15, align 8
  %85 = load i32, ptr %6, align 4
  %86 = load i32, ptr %7, align 4
  %87 = load i32, ptr %8, align 4
  %88 = call i32 @set_config_option(ptr noundef %83, ptr noundef %84, i32 noundef %85, i32 noundef %86, i32 noundef %87, i1 noundef zeroext true, i32 noundef 0, i1 noundef zeroext false)
  %89 = load ptr, ptr %14, align 8
  call void @pfree(ptr noundef %89)
  %90 = load ptr, ptr %15, align 8
  call void @pfree(ptr noundef %90)
  call void @llvm.lifetime.end.p0(i64 8, ptr %15) #16
  call void @llvm.lifetime.end.p0(i64 8, ptr %14) #16
  br label %91

91:                                               ; preds = %78
  %92 = getelementptr inbounds nuw %struct.ForBothState, ptr %13, i32 0, i32 2
  %93 = load i32, ptr %92, align 8
  %94 = add i32 %93, 1
  store i32 %94, ptr %92, align 8
  br label %23, !llvm.loop !66

95:                                               ; preds = %77
  %96 = load ptr, ptr %9, align 8
  call void @list_free(ptr noundef %96)
  %97 = load ptr, ptr %10, align 8
  call void @list_free(ptr noundef %97)
  call void @llvm.lifetime.end.p0(i64 8, ptr %12) #16
  call void @llvm.lifetime.end.p0(i64 8, ptr %11) #16
  call void @llvm.lifetime.end.p0(i64 8, ptr %10) #16
  call void @llvm.lifetime.end.p0(i64 8, ptr %9) #16
  ret void
}