; Function Attrs: nounwind uwtable
define dso_local void @ProcessGUCArray(ptr noundef %0, i32 noundef %1, i32 noundef %2, i32 noundef %3) local_unnamed_addr #0 {
  %5 = alloca ptr, align 8
  %6 = alloca ptr, align 8
  call void @llvm.lifetime.start.p0(i64 8, ptr nonnull %5) #29
  call void @llvm.lifetime.start.p0(i64 8, ptr nonnull %6) #29
  call void @TransformGUCArray(ptr noundef %0, ptr noundef nonnull %5, ptr noundef nonnull %6)
  %7 = load ptr, ptr %5, align 8
  %8 = load ptr, ptr %6, align 8
  %9 = getelementptr inbounds nuw i8, ptr %8, i64 4
  %.not = icmp eq ptr %7, null
  %.not22 = icmp eq ptr %8, null
  %10 = getelementptr inbounds nuw i8, ptr %7, i64 4
  %11 = getelementptr inbounds nuw i8, ptr %7, i64 16
  %12 = getelementptr inbounds nuw i8, ptr %8, i64 16
  %brmerge = select i1 %.not22, i1 true, i1 %.not
  br i1 %brmerge, label %.thread, label %.split.split

.split.split:                                     ; preds = %4
  %13 = icmp ugt i32 %2, 10
  %14 = icmp eq i32 %2, 9
  %or.cond.i = or i1 %13, %14
  br i1 %or.cond.i, label %.split.split.split.us, label %.split.split.split

.split.split.split.us:                            ; preds = %.split.split, %set_config_option.exit.us25
  %indvars.iv31 = phi i64 [ %indvars.iv.next32, %set_config_option.exit.us25 ], [ 0, %.split.split ]
  %15 = load i32, ptr %10, align 4
  %16 = sext i32 %15 to i64
  %17 = icmp slt i64 %indvars.iv31, %16
  br i1 %17, label %18, label %21

18:                                               ; preds = %.split.split.split.us
  %19 = load ptr, ptr %11, align 8
  %20 = getelementptr inbounds nuw %union.ListCell, ptr %19, i64 %indvars.iv31
  br label %21

21:                                               ; preds = %18, %.split.split.split.us
  %22 = phi ptr [ %20, %18 ], [ null, %.split.split.split.us ]
  %23 = load i32, ptr %9, align 4
  %24 = sext i32 %23 to i64
  %25 = icmp slt i64 %indvars.iv31, %24
  br i1 %25, label %26, label %.thread

26:                                               ; preds = %21
  %27 = load ptr, ptr %12, align 8
  %28 = icmp ne ptr %22, null
  %29 = icmp ne ptr %27, null
  %30 = select i1 %28, i1 %29, i1 false
  br i1 %30, label %set_config_option.exit.us25, label %.thread

set_config_option.exit.us25:                      ; preds = %26
  %31 = getelementptr inbounds nuw %union.ListCell, ptr %27, i64 %indvars.iv31
  %32 = load ptr, ptr %22, align 8
  %33 = load ptr, ptr %31, align 8
  %34 = tail call i32 @GetUserId() #29
  %35 = tail call range(i32 -1, 2) i32 @set_config_with_handle(ptr noundef %32, ptr noundef null, ptr noundef %33, i32 noundef %1, i32 noundef %2, i32 noundef %34, i32 noundef %3, i1 noundef zeroext true, i32 noundef 0, i1 noundef zeroext false)
  tail call void @pfree(ptr noundef %32) #29
  tail call void @pfree(ptr noundef %33) #29
  %indvars.iv.next32 = add nuw nsw i64 %indvars.iv31, 1
  br label %.split.split.split.us, !llvm.loop !62

.split.split.split:                               ; preds = %.split.split, %set_config_option.exit
  %indvars.iv = phi i64 [ %indvars.iv.next, %set_config_option.exit ], [ 0, %.split.split ]
  %36 = load i32, ptr %10, align 4
  %37 = sext i32 %36 to i64
  %38 = icmp slt i64 %indvars.iv, %37
  br i1 %38, label %39, label %42

39:                                               ; preds = %.split.split.split
  %40 = load ptr, ptr %11, align 8
  %41 = getelementptr inbounds nuw %union.ListCell, ptr %40, i64 %indvars.iv
  br label %42

42:                                               ; preds = %.split.split.split, %39
  %43 = phi ptr [ %41, %39 ], [ null, %.split.split.split ]
  %44 = load i32, ptr %9, align 4
  %45 = sext i32 %44 to i64
  %46 = icmp slt i64 %indvars.iv, %45
  br i1 %46, label %47, label %.thread

47:                                               ; preds = %42
  %48 = load ptr, ptr %12, align 8
  %49 = icmp ne ptr %43, null
  %50 = icmp ne ptr %48, null
  %51 = select i1 %49, i1 %50, i1 false
  br i1 %51, label %set_config_option.exit, label %.thread

.thread:                                          ; preds = %47, %42, %21, %26, %4
  tail call void @list_free(ptr noundef %7) #29
  tail call void @list_free(ptr noundef %8) #29
  call void @llvm.lifetime.end.p0(i64 8, ptr nonnull %6) #29
  call void @llvm.lifetime.end.p0(i64 8, ptr nonnull %5) #29
  ret void

set_config_option.exit:                           ; preds = %47
  %52 = getelementptr inbounds nuw %union.ListCell, ptr %48, i64 %indvars.iv
  %53 = load ptr, ptr %43, align 8
  %54 = load ptr, ptr %52, align 8
  %55 = tail call range(i32 -1, 2) i32 @set_config_with_handle(ptr noundef %53, ptr noundef null, ptr noundef %54, i32 noundef %1, i32 noundef %2, i32 noundef 10, i32 noundef %3, i1 noundef zeroext true, i32 noundef 0, i1 noundef zeroext false)
  tail call void @pfree(ptr noundef %53) #29
  tail call void @pfree(ptr noundef %54) #29
  %indvars.iv.next = add nuw nsw i64 %indvars.iv, 1
  br label %.split.split.split, !llvm.loop !62
}